; Function Attrs: uwtable
define dso_local void @_ZTv0_n40_N10cmDebugger30cmDebuggerPipeConnection_POSIX5closeEv(ptr nocapture noundef %0) unnamed_addr #9 align 2 {
  %2 = load ptr, ptr %0, align 8
  %3 = getelementptr inbounds i8, ptr %2, i64 -40
  %4 = load i64, ptr %3, align 8
  %5 = getelementptr inbounds i8, ptr %0, i64 %4
  %6 = getelementptr inbounds i8, ptr %5, i64 98
  %char0.i.i = load i8, ptr %6, align 1
  %.not.i.i = icmp eq i8 %char0.i.i, 0
  br i1 %.not.i.i, label %_ZN10cmDebugger30cmDebuggerPipeConnection_POSIX5closeEv.exit, label %7

7:                                                ; preds = %1
  %8 = tail call i32 @unlink(ptr noundef nonnull %6) #25
  store i8 0, ptr %6, align 2
  br label %_ZN10cmDebugger30cmDebuggerPipeConnection_POSIX5closeEv.exit

_ZN10cmDebugger30cmDebuggerPipeConnection_POSIX5closeEv.exit: ; preds = %1, %7
  %9 = getelementptr inbounds i8, ptr %5, i64 208
  %10 = load i32, ptr %9, align 8
  %11 = tail call i32 @close(i32 noundef %10)
  store i32 -1, ptr %9, align 8
  %12 = getelementptr inbounds i8, ptr %5, i64 212
  %13 = load i32, ptr %12, align 4
  %14 = tail call i32 @close(i32 noundef %13)
  store i32 -1, ptr %12, align 4
  ret void
}